; Function Attrs: mustprogress nofree norecurse nosync nounwind willreturn memory(readwrite, inaccessiblemem: none) uwtable
define void @_ZN4YAML12EmitterState11StartedNodeEv(ptr noundef nonnull align 8 captures(none) dereferenceable(224) initializes((208, 212)) %0) local_unnamed_addr #5 align 2 {
  %2 = getelementptr inbounds nuw i8, ptr %0, i64 176
  %3 = load ptr, ptr %2, align 8, !tbaa !97
  %4 = getelementptr inbounds nuw i8, ptr %0, i64 184
  %5 = load ptr, ptr %4, align 8, !tbaa !97
  %6 = icmp eq ptr %3, %5
  br i1 %6, label %7, label %11

7:                                                ; preds = %1
  %8 = getelementptr inbounds nuw i8, ptr %0, i64 216
  %9 = load i64, ptr %8, align 8, !tbaa !77
  %10 = add i64 %9, 1
  store i64 %10, ptr %8, align 8, !tbaa !77
  br label %20

11:                                               ; preds = %1
  %12 = getelementptr inbounds i8, ptr %5, i64 -8
  %13 = load ptr, ptr %12, align 8, !tbaa !89
  %14 = getelementptr inbounds nuw i8, ptr %13, i64 16
  %15 = load i64, ptr %14, align 8, !tbaa !103
  %16 = add i64 %15, 1
  store i64 %16, ptr %14, align 8, !tbaa !103
  %17 = and i64 %15, 1
  %.not = icmp eq i64 %17, 0
  br i1 %.not, label %20, label %18

18:                                               ; preds = %11
  %19 = getelementptr inbounds nuw i8, ptr %13, i64 24
  store i8 0, ptr %19, align 8, !tbaa !98
  br label %20

20:                                               ; preds = %11, %18, %7
  %21 = getelementptr inbounds nuw i8, ptr %0, i64 208
  store i32 0, ptr %21, align 8
  ret void
}